; Function Attrs: mustprogress uwtable
define noundef signext range(i8 0, 2) i8 @_ZNK6icu_7717GregorianCalendar14isEquivalentToERKNS_8CalendarE(ptr noundef nonnull align 8 dereferenceable(222) %0, ptr noundef nonnull align 8 dereferenceable(192) %1) unnamed_addr #1 align 2 {
  %3 = tail call noundef signext i8 @_ZNK6icu_778Calendar14isEquivalentToERKS0_(ptr noundef nonnull align 8 dereferenceable(192) %0, ptr noundef nonnull align 8 dereferenceable(192) %1)
  %.not = icmp eq i8 %3, 0
  br i1 %.not, label %11, label %4

4:                                                ; preds = %2
  %5 = getelementptr inbounds nuw i8, ptr %0, i64 192
  %6 = load double, ptr %5, align 8, !tbaa !6
  %7 = getelementptr inbounds nuw i8, ptr %1, i64 192
  %8 = load double, ptr %7, align 8, !tbaa !6
  %9 = fcmp oeq double %6, %8
  %10 = zext i1 %9 to i8
  br label %11

11:                                               ; preds = %4, %2
  %12 = phi i8 [ 0, %2 ], [ %10, %4 ]
  ret i8 %12
}